#include <math.h>
#include <stdio.h>
#include <stdlib.h>
#include <string.h>


int main()
{
	int sum,i,e,n;
	sum=0;

	scanf("%d",&e);

	for(i=1;i<=e;i++){

		int a;
		a=i;
		if(a%7==0){
			n=1;
		}
		else{
			int b,c,d;
			d=a;
			do{
				c=d;
				b=c%10;
				if(b==7){
					break;
				}
				else{
					d=(c-b)/10;
				}
			}
			while(b!=0);
			if(b==7){
				n=1;
			}
			else{
			n=0;
			}
		}
		
		if(n==0){
			sum+=i*i;
		}
		else{
			continue;
		}
	}
	printf("%d\n",sum);
	return 0;
}
